target datalayout = "e-m:e-p270:32:32-p271:32:32-p272:64:64-i64:64-i128:128-f80:128-n8:16:32:64-S128"
target triple = "x86_64-pc-linux-gnu"

%"class.std::__cxx11::basic_string" = type { %"struct.std::__cxx11::basic_string<char>::_Alloc_hider", i64, %union.anon.0 }
%"struct.std::__cxx11::basic_string<char>::_Alloc_hider" = type { ptr }
%union.anon.0 = type { i64, [8 x i8] }
%"struct.vcpkg::LocalizedString" = type { %"class.std::__cxx11::basic_string" }
%"struct.vcpkg::MessageLine" = type { %"class.std::vector" }
%"class.std::vector" = type { %"struct.std::_Vector_base" }
%"struct.std::_Vector_base" = type { %"struct.std::_Vector_base<vcpkg::MessageLineSegment, std::allocator<vcpkg::MessageLineSegment>>::_Vector_impl" }
%"struct.std::_Vector_base<vcpkg::MessageLineSegment, std::allocator<vcpkg::MessageLineSegment>>::_Vector_impl" = type { %"struct.std::_Vector_base<vcpkg::MessageLineSegment, std::allocator<vcpkg::MessageLineSegment>>::_Vector_impl_data" }
%"struct.std::_Vector_base<vcpkg::MessageLineSegment, std::allocator<vcpkg::MessageLineSegment>>::_Vector_impl_data" = type { ptr, ptr, ptr }
%"struct.vcpkg::DiagnosticLine" = type { i32, %"struct.vcpkg::Optional", %"struct.vcpkg::TextRowCol", %"struct.vcpkg::LocalizedString" }
%"struct.vcpkg::Optional" = type { %"struct.vcpkg::details::OptionalStorage" }
%"struct.vcpkg::details::OptionalStorage" = type { %"struct.vcpkg::details::OptionalStorageDtor" }
%"struct.vcpkg::details::OptionalStorageDtor" = type { i8, %union.anon }
%union.anon = type { %"class.std::__cxx11::basic_string" }
%"struct.vcpkg::TextRowCol" = type { i32, i32 }
%"struct.vcpkg::DiagnosticContext" = type { ptr }
%"struct.vcpkg::BufferedDiagnosticContext" = type { %"struct.vcpkg::DiagnosticContext", ptr, %"class.std::vector.6" }
%"class.std::vector.6" = type { %"struct.std::_Vector_base.7" }
%"struct.std::_Vector_base.7" = type { %"struct.std::_Vector_base<vcpkg::DiagnosticLine, std::allocator<vcpkg::DiagnosticLine>>::_Vector_impl" }
%"struct.std::_Vector_base<vcpkg::DiagnosticLine, std::allocator<vcpkg::DiagnosticLine>>::_Vector_impl" = type { %"struct.std::_Vector_base<vcpkg::DiagnosticLine, std::allocator<vcpkg::DiagnosticLine>>::_Vector_impl_data" }
%"struct.std::_Vector_base<vcpkg::DiagnosticLine, std::allocator<vcpkg::DiagnosticLine>>::_Vector_impl_data" = type { ptr, ptr, ptr }
%"class.__gnu_cxx::__normal_iterator" = type { ptr }

; Function Attrs: mustprogress nounwind uwtable
define linkonce_odr dso_local noundef nonnull align 8 dereferenceable(8) ptr @_ZNK9__gnu_cxx17__normal_iteratorIPKN5vcpkg14DiagnosticLineESt6vectorIS2_SaIS2_EEE4baseEv(ptr noundef nonnull align 8 dereferenceable(8) %0) #2 comdat align 2 {
  %2 = alloca ptr, align 8
  store ptr %0, ptr %2, align 8, !tbaa !84
  %3 = load ptr, ptr %2, align 8
  %4 = getelementptr inbounds nuw %"class.__gnu_cxx::__normal_iterator", ptr %3, i32 0, i32 0
  ret ptr %4
}

; Function Attrs: mustprogress nounwind uwtable
define linkonce_odr dso_local void @_ZN9__gnu_cxx17__normal_iteratorIPKN5vcpkg14DiagnosticLineESt6vectorIS2_SaIS2_EEEC2ERKS4_(ptr noundef nonnull align 8 dereferenceable(8) %0, ptr noundef nonnull align 8 dereferenceable(8) %1) unnamed_addr #2 comdat align 2 {
  %3 = alloca ptr, align 8
  %4 = alloca ptr, align 8
  store ptr %0, ptr %3, align 8, !tbaa !84
  store ptr %1, ptr %4, align 8, !tbaa !199
  %5 = load ptr, ptr %3, align 8
  %6 = getelementptr inbounds nuw %"class.__gnu_cxx::__normal_iterator", ptr %5, i32 0, i32 0
  %7 = load ptr, ptr %4, align 8, !tbaa !199
  %8 = load ptr, ptr %7, align 8, !tbaa !9
  store ptr %8, ptr %6, align 8, !tbaa !86
  ret void
}

; Function Attrs: mustprogress nounwind uwtable
define linkonce_odr dso_local noundef nonnull align 8 dereferenceable(8) ptr @_ZN9__gnu_cxx17__normal_iteratorIPKN5vcpkg14DiagnosticLineESt6vectorIS2_SaIS2_EEEppEv(ptr noundef nonnull align 8 dereferenceable(8) %0) #2 comdat align 2 {
  %2 = alloca ptr, align 8
  store ptr %0, ptr %2, align 8, !tbaa !84
  %3 = load ptr, ptr %2, align 8
  %4 = getelementptr inbounds nuw %"class.__gnu_cxx::__normal_iterator", ptr %3, i32 0, i32 0
  %5 = load ptr, ptr %4, align 8, !tbaa !86
  %6 = getelementptr inbounds nuw %"struct.vcpkg::DiagnosticLine", ptr %5, i32 1
  store ptr %6, ptr %4, align 8, !tbaa !86
  ret ptr %3
}

; Function Attrs: mustprogress uwtable
define dso_local void @_ZNK5vcpkg14DiagnosticLine8print_toERNS_11MessageSinkE(ptr noundef nonnull align 8 dereferenceable(88) %0, ptr noundef nonnull align 8 dereferenceable(8) %1) #0 align 2 personality ptr @__gxx_personality_v0 {
  %3 = alloca ptr, align 8
  %4 = alloca ptr, align 8
  %5 = alloca %"struct.vcpkg::MessageLine", align 8
  %6 = alloca ptr, align 8
  %7 = alloca i32, align 4
  store ptr %0, ptr %3, align 8, !tbaa !9
  store ptr %1, ptr %4, align 8, !tbaa !34
  %8 = load ptr, ptr %3, align 8
  %9 = load ptr, ptr %4, align 8, !tbaa !34
  call void @llvm.lifetime.start.p0(i64 24, ptr %5) #20
  call void @_ZNK5vcpkg14DiagnosticLine15to_message_lineEv(ptr dead_on_unwind writable sret(%"struct.vcpkg::MessageLine") align 8 %5, ptr noundef nonnull align 8 dereferenceable(88) %8)
  %10 = load ptr, ptr %9, align 8, !tbaa !11
  %11 = getelementptr inbounds ptr, ptr %10, i64 1
  %12 = load ptr, ptr %11, align 8
  invoke void %12(ptr noundef nonnull align 8 dereferenceable(8) %9, ptr noundef nonnull align 8 dereferenceable(24) %5)
          to label %13 unwind label %14

13:                                               ; preds = %2
  call void @_ZN5vcpkg11MessageLineD2Ev(ptr noundef nonnull align 8 dereferenceable(24) %5) #20
  call void @llvm.lifetime.end.p0(i64 24, ptr %5) #20
  ret void

14:                                               ; preds = %2
  %15 = landingpad { ptr, i32 }
          cleanup
  %16 = extractvalue { ptr, i32 } %15, 0
  store ptr %16, ptr %6, align 8
  %17 = extractvalue { ptr, i32 } %15, 1
  store i32 %17, ptr %7, align 4
  call void @_ZN5vcpkg11MessageLineD2Ev(ptr noundef nonnull align 8 dereferenceable(24) %5) #20
  call void @llvm.lifetime.end.p0(i64 24, ptr %5) #20
  br label %18

18:                                               ; preds = %14
  %19 = load ptr, ptr %6, align 8
  %20 = load i32, ptr %7, align 4
  %21 = insertvalue { ptr, i32 } poison, ptr %19, 0
  %22 = insertvalue { ptr, i32 } %21, i32 %20, 1
  resume { ptr, i32 } %22
}

; Function Attrs: mustprogress nounwind uwtable
define linkonce_odr dso_local noundef nonnull align 8 dereferenceable(88) ptr @_ZNK9__gnu_cxx17__normal_iteratorIPKN5vcpkg14DiagnosticLineESt6vectorIS2_SaIS2_EEEdeEv(ptr noundef nonnull align 8 dereferenceable(8) %0) #2 comdat align 2 {
  %2 = alloca ptr, align 8
  store ptr %0, ptr %2, align 8, !tbaa !84
  %3 = load ptr, ptr %2, align 8
  %4 = getelementptr inbounds nuw %"class.__gnu_cxx::__normal_iterator", ptr %3, i32 0, i32 0
  %5 = load ptr, ptr %4, align 8, !tbaa !86
  ret ptr %5
}

; Function Attrs: inlinehint mustprogress nounwind uwtable
define linkonce_odr dso_local noundef zeroext i1 @_ZN9__gnu_cxxneIPKN5vcpkg14DiagnosticLineESt6vectorIS2_SaIS2_EEEEbRKNS_17__normal_iteratorIT_T0_EESD_(ptr noundef nonnull align 8 dereferenceable(8) %0, ptr noundef nonnull align 8 dereferenceable(8) %1) #5 comdat {
  %3 = alloca ptr, align 8
  %4 = alloca ptr, align 8
  store ptr %0, ptr %3, align 8, !tbaa !84
  store ptr %1, ptr %4, align 8, !tbaa !84
  %5 = load ptr, ptr %3, align 8, !tbaa !84
  %6 = call noundef nonnull align 8 dereferenceable(8) ptr @_ZNK9__gnu_cxx17__normal_iteratorIPKN5vcpkg14DiagnosticLineESt6vectorIS2_SaIS2_EEE4baseEv(ptr noundef nonnull align 8 dereferenceable(8) %5) #20
  %7 = load ptr, ptr %6, align 8, !tbaa !9
  %8 = load ptr, ptr %4, align 8, !tbaa !84
  %9 = call noundef nonnull align 8 dereferenceable(8) ptr @_ZNK9__gnu_cxx17__normal_iteratorIPKN5vcpkg14DiagnosticLineESt6vectorIS2_SaIS2_EEE4baseEv(ptr noundef nonnull align 8 dereferenceable(8) %8) #20
  %10 = load ptr, ptr %9, align 8, !tbaa !9
  %11 = icmp ne ptr %7, %10
  ret i1 %11
}

; Function Attrs: mustprogress nounwind uwtable
define linkonce_odr dso_local ptr @_ZNKSt6vectorIN5vcpkg14DiagnosticLineESaIS1_EE3endEv(ptr noundef nonnull align 8 dereferenceable(24) %0) #2 comdat align 2 {
  %2 = alloca %"class.__gnu_cxx::__normal_iterator", align 8
  %3 = alloca ptr, align 8
  store ptr %0, ptr %3, align 8, !tbaa !79
  %4 = load ptr, ptr %3, align 8
  %5 = getelementptr inbounds nuw %"struct.std::_Vector_base.7", ptr %4, i32 0, i32 0
  %6 = getelementptr inbounds nuw %"struct.std::_Vector_base<vcpkg::DiagnosticLine, std::allocator<vcpkg::DiagnosticLine>>::_Vector_impl_data", ptr %5, i32 0, i32 1
  call void @_ZN9__gnu_cxx17__normal_iteratorIPKN5vcpkg14DiagnosticLineESt6vectorIS2_SaIS2_EEEC2ERKS4_(ptr noundef nonnull align 8 dereferenceable(8) %2, ptr noundef nonnull align 8 dereferenceable(8) %6) #20
  %7 = getelementptr inbounds nuw %"class.__gnu_cxx::__normal_iterator", ptr %2, i32 0, i32 0
  %8 = load ptr, ptr %7, align 8
  ret ptr %8
}

; Function Attrs: mustprogress nounwind uwtable
define linkonce_odr dso_local ptr @_ZNKSt6vectorIN5vcpkg14DiagnosticLineESaIS1_EE5beginEv(ptr noundef nonnull align 8 dereferenceable(24) %0) #2 comdat align 2 {
  %2 = alloca %"class.__gnu_cxx::__normal_iterator", align 8
  %3 = alloca ptr, align 8
  store ptr %0, ptr %3, align 8, !tbaa !79
  %4 = load ptr, ptr %3, align 8
  %5 = getelementptr inbounds nuw %"struct.std::_Vector_base.7", ptr %4, i32 0, i32 0
  %6 = getelementptr inbounds nuw %"struct.std::_Vector_base<vcpkg::DiagnosticLine, std::allocator<vcpkg::DiagnosticLine>>::_Vector_impl_data", ptr %5, i32 0, i32 0
  call void @_ZN9__gnu_cxx17__normal_iteratorIPKN5vcpkg14DiagnosticLineESt6vectorIS2_SaIS2_EEEC2ERKS4_(ptr noundef nonnull align 8 dereferenceable(8) %2, ptr noundef nonnull align 8 dereferenceable(8) %6) #20
  %7 = getelementptr inbounds nuw %"class.__gnu_cxx::__normal_iterator", ptr %2, i32 0, i32 0
  %8 = load ptr, ptr %7, align 8
  ret ptr %8
}

; Function Attrs: mustprogress uwtable
define dso_local void @_ZNK5vcpkg25BufferedDiagnosticContext8print_toERNS_11MessageSinkE(ptr noundef nonnull align 8 dereferenceable(40) %0, ptr noundef nonnull align 8 dereferenceable(8) %1) #0 align 2 {
  %3 = alloca ptr, align 8
  %4 = alloca ptr, align 8
  %5 = alloca ptr, align 8
  %6 = alloca %"class.__gnu_cxx::__normal_iterator", align 8
  %7 = alloca %"class.__gnu_cxx::__normal_iterator", align 8
  %8 = alloca ptr, align 8
  store ptr %0, ptr %3, align 8, !tbaa !77
  store ptr %1, ptr %4, align 8, !tbaa !34
  %9 = load ptr, ptr %3, align 8
  call void @llvm.lifetime.start.p0(i64 8, ptr %5) #20
  %10 = getelementptr inbounds nuw %"struct.vcpkg::BufferedDiagnosticContext", ptr %9, i32 0, i32 2
  store ptr %10, ptr %5, align 8, !tbaa !79
  call void @llvm.lifetime.start.p0(i64 8, ptr %6) #20
  %11 = load ptr, ptr %5, align 8, !tbaa !79
  %12 = call ptr @_ZNKSt6vectorIN5vcpkg14DiagnosticLineESaIS1_EE5beginEv(ptr noundef nonnull align 8 dereferenceable(24) %11) #20
  %13 = getelementptr inbounds nuw %"class.__gnu_cxx::__normal_iterator", ptr %6, i32 0, i32 0
  store ptr %12, ptr %13, align 8
  call void @llvm.lifetime.start.p0(i64 8, ptr %7) #20
  %14 = load ptr, ptr %5, align 8, !tbaa !79
  %15 = call ptr @_ZNKSt6vectorIN5vcpkg14DiagnosticLineESaIS1_EE3endEv(ptr noundef nonnull align 8 dereferenceable(24) %14) #20
  %16 = getelementptr inbounds nuw %"class.__gnu_cxx::__normal_iterator", ptr %7, i32 0, i32 0
  store ptr %15, ptr %16, align 8
  br label %17

17:                                               ; preds = %24, %2
  %18 = call noundef zeroext i1 @_ZN9__gnu_cxxneIPKN5vcpkg14DiagnosticLineESt6vectorIS2_SaIS2_EEEEbRKNS_17__normal_iteratorIT_T0_EESD_(ptr noundef nonnull align 8 dereferenceable(8) %6, ptr noundef nonnull align 8 dereferenceable(8) %7) #20
  br i1 %18, label %20, label %19

19:                                               ; preds = %17
  call void @llvm.lifetime.end.p0(i64 8, ptr %7) #20
  call void @llvm.lifetime.end.p0(i64 8, ptr %6) #20
  call void @llvm.lifetime.end.p0(i64 8, ptr %5) #20
  br label %26

20:                                               ; preds = %17
  call void @llvm.lifetime.start.p0(i64 8, ptr %8) #20
  %21 = call noundef nonnull align 8 dereferenceable(88) ptr @_ZNK9__gnu_cxx17__normal_iteratorIPKN5vcpkg14DiagnosticLineESt6vectorIS2_SaIS2_EEEdeEv(ptr noundef nonnull align 8 dereferenceable(8) %6) #20
  store ptr %21, ptr %8, align 8, !tbaa !9
  %22 = load ptr, ptr %8, align 8, !tbaa !9
  %23 = load ptr, ptr %4, align 8, !tbaa !34
  call void @_ZNK5vcpkg14DiagnosticLine8print_toERNS_11MessageSinkE(ptr noundef nonnull align 8 dereferenceable(88) %22, ptr noundef nonnull align 8 dereferenceable(8) %23)
  call void @llvm.lifetime.end.p0(i64 8, ptr %8) #20
  br label %24

24:                                               ; preds = %20
  %25 = call noundef nonnull align 8 dereferenceable(8) ptr @_ZN9__gnu_cxx17__normal_iteratorIPKN5vcpkg14DiagnosticLineESt6vectorIS2_SaIS2_EEEppEv(ptr noundef nonnull align 8 dereferenceable(8) %6) #20
  br label %17

26:                                               ; preds = %19
  ret void
}