; Function Attrs: mustprogress uwtable
define dso_local void @_ZNK5vcpkg25BufferedDiagnosticContext8print_toERNS_11MessageSinkE(ptr noundef nonnull readonly align 8 captures(none) dereferenceable(40) %0, ptr noundef nonnull align 8 dereferenceable(8) %1) local_unnamed_addr #0 align 2 personality ptr @__gxx_personality_v0 {
  %3 = alloca %"struct.vcpkg::MessageLine", align 8
  %4 = getelementptr inbounds nuw i8, ptr %0, i64 16
  %5 = load ptr, ptr %4, align 8, !tbaa !65
  %6 = getelementptr inbounds nuw i8, ptr %0, i64 24
  %7 = load ptr, ptr %6, align 8, !tbaa !65
  %.not8 = icmp eq ptr %5, %7
  br i1 %.not8, label %._crit_edge, label %.lr.ph

.lr.ph:                                           ; preds = %2
  %8 = getelementptr inbounds nuw i8, ptr %3, i64 8
  %9 = getelementptr inbounds nuw i8, ptr %3, i64 16
  br label %10

._crit_edge:                                      ; preds = %_ZNK5vcpkg14DiagnosticLine8print_toERNS_11MessageSinkE.exit, %2
  ret void

10:                                               ; preds = %.lr.ph, %_ZNK5vcpkg14DiagnosticLine8print_toERNS_11MessageSinkE.exit
  %.sroa.05.09 = phi ptr [ %5, %.lr.ph ], [ %35, %_ZNK5vcpkg14DiagnosticLine8print_toERNS_11MessageSinkE.exit ]
  call void @llvm.lifetime.start.p0(i64 24, ptr nonnull %3) #26
  call void @_ZNK5vcpkg14DiagnosticLine15to_message_lineEv(ptr dead_on_unwind nonnull writable sret(%"struct.vcpkg::MessageLine") align 8 %3, ptr noundef nonnull align 8 dereferenceable(88) %.sroa.05.09)
  %11 = load ptr, ptr %1, align 8, !tbaa !4
  %12 = getelementptr inbounds nuw i8, ptr %11, i64 8
  %13 = load ptr, ptr %12, align 8
  invoke void %13(ptr noundef nonnull align 8 dereferenceable(8) %1, ptr noundef nonnull align 8 dereferenceable(24) %3)
          to label %14 unwind label %33

14:                                               ; preds = %10
  %15 = load ptr, ptr %3, align 8, !tbaa !42
  %16 = load ptr, ptr %8, align 8, !tbaa !45
  %.not4.i.i.i.i.i.i = icmp eq ptr %15, %16
  br i1 %.not4.i.i.i.i.i.i, label %_ZSt8_DestroyIPN5vcpkg18MessageLineSegmentES1_EvT_S3_RSaIT0_E.exit.i.i.i, label %.lr.ph.i.i.i.i.i.i

.lr.ph.i.i.i.i.i.i:                               ; preds = %14, %_ZSt8_DestroyIN5vcpkg18MessageLineSegmentEEvPT_.exit.i.i.i.i.i.i
  %.05.i.i.i.i.i.i = phi ptr [ %26, %_ZSt8_DestroyIN5vcpkg18MessageLineSegmentEEvPT_.exit.i.i.i.i.i.i ], [ %15, %14 ]
  %17 = getelementptr inbounds nuw i8, ptr %.05.i.i.i.i.i.i, i64 8
  %18 = load ptr, ptr %17, align 8, !tbaa !12
  %19 = getelementptr inbounds nuw i8, ptr %.05.i.i.i.i.i.i, i64 24
  %20 = icmp eq ptr %18, %19
  br i1 %20, label %_ZNKSt7__cxx1112basic_stringIcSt11char_traitsIcESaIcEE11_M_is_localEv.exit.thread.i.i.i.i.i.i.i.i.i.i, label %_ZNKSt7__cxx1112basic_stringIcSt11char_traitsIcESaIcEE11_M_is_localEv.exit.i.i.i.i.i.i.i.i.i.i

_ZNKSt7__cxx1112basic_stringIcSt11char_traitsIcESaIcEE11_M_is_localEv.exit.thread.i.i.i.i.i.i.i.i.i.i: ; preds = %.lr.ph.i.i.i.i.i.i
  %21 = getelementptr inbounds nuw i8, ptr %.05.i.i.i.i.i.i, i64 16
  %22 = load i64, ptr %21, align 8, !tbaa !17
  %23 = icmp ult i64 %22, 16
  call void @llvm.assume(i1 %23)
  br label %_ZSt8_DestroyIN5vcpkg18MessageLineSegmentEEvPT_.exit.i.i.i.i.i.i

_ZNKSt7__cxx1112basic_stringIcSt11char_traitsIcESaIcEE11_M_is_localEv.exit.i.i.i.i.i.i.i.i.i.i: ; preds = %.lr.ph.i.i.i.i.i.i
  %24 = load i64, ptr %19, align 8, !tbaa !18
  %25 = add i64 %24, 1
  call void @_ZdlPvm(ptr noundef %18, i64 noundef %25) #28
  br label %_ZSt8_DestroyIN5vcpkg18MessageLineSegmentEEvPT_.exit.i.i.i.i.i.i

_ZSt8_DestroyIN5vcpkg18MessageLineSegmentEEvPT_.exit.i.i.i.i.i.i: ; preds = %_ZNKSt7__cxx1112basic_stringIcSt11char_traitsIcESaIcEE11_M_is_localEv.exit.i.i.i.i.i.i.i.i.i.i, %_ZNKSt7__cxx1112basic_stringIcSt11char_traitsIcESaIcEE11_M_is_localEv.exit.thread.i.i.i.i.i.i.i.i.i.i
  %26 = getelementptr inbounds nuw i8, ptr %.05.i.i.i.i.i.i, i64 40
  %.not.i.i.i.i.i.i = icmp eq ptr %26, %16
  br i1 %.not.i.i.i.i.i.i, label %_ZSt8_DestroyIPN5vcpkg18MessageLineSegmentES1_EvT_S3_RSaIT0_E.exitthread-pre-split.i.i.i, label %.lr.ph.i.i.i.i.i.i, !llvm.loop !46

_ZSt8_DestroyIPN5vcpkg18MessageLineSegmentES1_EvT_S3_RSaIT0_E.exitthread-pre-split.i.i.i: ; preds = %_ZSt8_DestroyIN5vcpkg18MessageLineSegmentEEvPT_.exit.i.i.i.i.i.i
  %.pr.i.i.i = load ptr, ptr %3, align 8, !tbaa !42
  br label %_ZSt8_DestroyIPN5vcpkg18MessageLineSegmentES1_EvT_S3_RSaIT0_E.exit.i.i.i

_ZSt8_DestroyIPN5vcpkg18MessageLineSegmentES1_EvT_S3_RSaIT0_E.exit.i.i.i: ; preds = %_ZSt8_DestroyIPN5vcpkg18MessageLineSegmentES1_EvT_S3_RSaIT0_E.exitthread-pre-split.i.i.i, %14
  %27 = phi ptr [ %.pr.i.i.i, %_ZSt8_DestroyIPN5vcpkg18MessageLineSegmentES1_EvT_S3_RSaIT0_E.exitthread-pre-split.i.i.i ], [ %15, %14 ]
  %.not.i.i.i.i.i = icmp eq ptr %27, null
  br i1 %.not.i.i.i.i.i, label %_ZNK5vcpkg14DiagnosticLine8print_toERNS_11MessageSinkE.exit, label %28

28:                                               ; preds = %_ZSt8_DestroyIPN5vcpkg18MessageLineSegmentES1_EvT_S3_RSaIT0_E.exit.i.i.i
  %29 = load ptr, ptr %9, align 8, !tbaa !48
  %30 = ptrtoint ptr %29 to i64
  %31 = ptrtoint ptr %27 to i64
  %32 = sub i64 %30, %31
  call void @_ZdlPvm(ptr noundef nonnull %27, i64 noundef %32) #28
  br label %_ZNK5vcpkg14DiagnosticLine8print_toERNS_11MessageSinkE.exit

33:                                               ; preds = %10
  %34 = landingpad { ptr, i32 }
          cleanup
  call void @_ZN5vcpkg11MessageLineD2Ev(ptr noundef nonnull align 8 dereferenceable(24) %3) #26
  call void @llvm.lifetime.end.p0(i64 24, ptr nonnull %3) #26
  resume { ptr, i32 } %34

_ZNK5vcpkg14DiagnosticLine8print_toERNS_11MessageSinkE.exit: ; preds = %_ZSt8_DestroyIPN5vcpkg18MessageLineSegmentES1_EvT_S3_RSaIT0_E.exit.i.i.i, %28
  call void @llvm.lifetime.end.p0(i64 24, ptr nonnull %3) #26
  %35 = getelementptr inbounds nuw i8, ptr %.sroa.05.09, i64 88
  %.not = icmp eq ptr %35, %7
  br i1 %.not, label %._crit_edge, label %10
}